; Function Attrs: mustprogress nounwind uwtable
define dso_local void @_ZN5clang14JSONNodeDumper32VisitDependentSizedExtVectorTypeEPKNS_27DependentSizedExtVectorTypeE(ptr noundef nonnull align 8 dereferenceable(1312) %0, ptr nocapture noundef readonly %1) local_unnamed_addr #0 align 2 {
  %3 = getelementptr inbounds nuw i8, ptr %0, i64 1048
  tail call void @_ZN4llvm4json7OStream14attributeBeginENS_9StringRefE(ptr noundef nonnull align 8 dereferenceable(176) %3, ptr nonnull @.str.546, i64 7) #20
  tail call void @_ZN4llvm4json7OStream11objectBeginEv(ptr noundef nonnull align 8 dereferenceable(176) %3) #20
  %4 = getelementptr i8, ptr %1, i64 48
  %.val.val.i = load i32, ptr %4, align 16
  tail call void @_ZN5clang14JSONNodeDumper19writeSourceLocationENS_14SourceLocationE(ptr noundef nonnull align 8 dereferenceable(1312) %0, i32 %.val.val.i)
  tail call void @_ZN4llvm4json7OStream9objectEndEv(ptr noundef nonnull align 8 dereferenceable(176) %3) #20
  tail call void @_ZN4llvm4json7OStream12attributeEndEv(ptr noundef nonnull align 8 dereferenceable(176) %3) #20
  ret void
}